; Function Attrs: mustprogress nounwind uwtable
define void @_ZN6icu_7516FunctionReplacerD2Ev(ptr noundef nonnull align 8 dereferenceable(32) %this) unnamed_addr #4 align 2 {
entry:
  store ptr getelementptr inbounds ({ [12 x ptr], [7 x ptr] }, ptr @_ZTVN6icu_7516FunctionReplacerE, i64 0, i32 0, i64 2), ptr %this, align 8
  %add.ptr = getelementptr inbounds i8, ptr %this, i64 8
  store ptr getelementptr inbounds ({ [12 x ptr], [7 x ptr] }, ptr @_ZTVN6icu_7516FunctionReplacerE, i64 0, i32 1, i64 2), ptr %add.ptr, align 8
  %translit = getelementptr inbounds i8, ptr %this, i64 16
  %0 = load ptr, ptr %translit, align 8
  %isnull = icmp eq ptr %0, null
  br i1 %isnull, label %delete.end, label %delete.notnull

delete.notnull:                                   ; preds = %entry
  %vtable = load ptr, ptr %0, align 8
  %vfn = getelementptr inbounds i8, ptr %vtable, i64 8
  %1 = load ptr, ptr %vfn, align 8
  tail call void %1(ptr noundef nonnull align 8 dereferenceable(84) %0) #9
  br label %delete.end

delete.end:                                       ; preds = %delete.notnull, %entry
  %replacer = getelementptr inbounds i8, ptr %this, i64 24
  %2 = load ptr, ptr %replacer, align 8
  %isnull2 = icmp eq ptr %2, null
  br i1 %isnull2, label %delete.end6, label %delete.notnull3

delete.notnull3:                                  ; preds = %delete.end
  %vtable4 = load ptr, ptr %2, align 8
  %vfn5 = getelementptr inbounds i8, ptr %vtable4, i64 8
  %3 = load ptr, ptr %vfn5, align 8
  tail call void %3(ptr noundef nonnull align 8 dereferenceable(8) %2) #9
  br label %delete.end6

delete.end6:                                      ; preds = %delete.notnull3, %delete.end
  tail call void @_ZN6icu_7515UnicodeReplacerD2Ev(ptr noundef nonnull align 8 dereferenceable(8) %add.ptr) #9
  tail call void @_ZN6icu_7514UnicodeFunctorD2Ev(ptr noundef nonnull align 8 dereferenceable(8) %this) #9
  ret void
}